; Function Attrs: mustprogress nounwind uwtable
define dso_local void @_ZN4node4quic3CIDC2ERKS1_(ptr noundef nonnull align 8 dereferenceable(48) %this, ptr nocapture noundef nonnull readonly align 8 dereferenceable(48) %other) unnamed_addr #4 align 2 {
entry:
  store ptr getelementptr inbounds ({ [10 x ptr] }, ptr @_ZTVN4node4quic3CIDE, i64 0, i32 0, i64 2), ptr %this, align 8
  %ptr_ = getelementptr inbounds i8, ptr %this, i64 40
  %cid_2 = getelementptr inbounds i8, ptr %this, i64 8
  store ptr %cid_2, ptr %ptr_, align 8
  %ptr_3 = getelementptr inbounds i8, ptr %other, i64 40
  %0 = load ptr, ptr %ptr_3, align 8
  %cmp.not = icmp eq ptr %0, null
  br i1 %cmp.not, label %do.body6, label %do.end7

do.body6:                                         ; preds = %entry
  tail call void @_ZN4node6AssertERKNS_13AssertionInfoE(ptr noundef nonnull align 8 dereferenceable(24) @_ZZN4node4quic3CIDC1ERKS1_E4args) #12
  tail call void @abort() #13
  unreachable

do.end7:                                          ; preds = %entry
  %data = getelementptr inbounds i8, ptr %0, i64 8
  %1 = load i64, ptr %0, align 8
  tail call void @ngtcp2_cid_init(ptr noundef nonnull %cid_2, ptr noundef nonnull %data, i64 noundef %1) #12
  ret void
}